target datalayout = "e-m:e-p270:32:32-p271:32:32-p272:64:64-i64:64-i128:128-f80:128-n8:16:32:64-S128"
target triple = "x86_64-pc-linux-gnu"

%struct.DigColaLevel = type { ptr, i32 }

@stderr = external global ptr, align 8
@.str.4 = private unnamed_addr constant [58 x i8] c"integer overflow when trying to allocate %zu * %zu bytes\0A\00", align 1
@.str.5 = private unnamed_addr constant [49 x i8] c"out of memory when trying to allocate %zu bytes\0A\00", align 1

; Function Attrs: inlinehint nounwind uwtable
define internal ptr @gv_calloc(i64 noundef %0, i64 noundef %1) #4 {
  %3 = alloca i64, align 8
  %4 = alloca i64, align 8
  %5 = alloca ptr, align 8
  store i64 %0, ptr %3, align 8, !tbaa !67
  store i64 %1, ptr %4, align 8, !tbaa !67
  %6 = load i64, ptr %3, align 8, !tbaa !67
  %7 = icmp ugt i64 %6, 0
  br i1 %7, label %8, label %18

8:                                                ; preds = %2
  %9 = load i64, ptr %3, align 8, !tbaa !67
  %10 = udiv i64 -1, %9
  %11 = load i64, ptr %4, align 8, !tbaa !67
  %12 = icmp ult i64 %10, %11
  br i1 %12, label %13, label %18

13:                                               ; preds = %8
  %14 = load ptr, ptr @stderr, align 8, !tbaa !65
  %15 = load i64, ptr %3, align 8, !tbaa !67
  %16 = load i64, ptr %4, align 8, !tbaa !67
  %17 = call i32 (ptr, ptr, ...) @fprintf(ptr noundef %14, ptr noundef @.str.4, i64 noundef %15, i64 noundef %16) #9
  call void @graphviz_exit(i32 noundef 1) #10
  unreachable

18:                                               ; preds = %8, %2
  call void @llvm.lifetime.start.p0(i64 8, ptr %5) #9
  %19 = load i64, ptr %3, align 8, !tbaa !67
  %20 = load i64, ptr %4, align 8, !tbaa !67
  %21 = call noalias ptr @calloc(i64 noundef %19, i64 noundef %20) #11
  store ptr %21, ptr %5, align 8, !tbaa !49
  %22 = load i64, ptr %3, align 8, !tbaa !67
  %23 = icmp ugt i64 %22, 0
  br i1 %23, label %24, label %36

24:                                               ; preds = %18
  %25 = load i64, ptr %4, align 8, !tbaa !67
  %26 = icmp ugt i64 %25, 0
  br i1 %26, label %27, label %36

27:                                               ; preds = %24
  %28 = load ptr, ptr %5, align 8, !tbaa !49
  %29 = icmp eq ptr %28, null
  br i1 %29, label %30, label %36

30:                                               ; preds = %27
  %31 = load ptr, ptr @stderr, align 8, !tbaa !65
  %32 = load i64, ptr %3, align 8, !tbaa !67
  %33 = load i64, ptr %4, align 8, !tbaa !67
  %34 = mul i64 %32, %33
  %35 = call i32 (ptr, ptr, ...) @fprintf(ptr noundef %31, ptr noundef @.str.5, i64 noundef %34) #9
  call void @graphviz_exit(i32 noundef 1) #10
  unreachable

36:                                               ; preds = %27, %24, %18
  %37 = load ptr, ptr %5, align 8, !tbaa !49
  call void @llvm.lifetime.end.p0(i64 8, ptr %5) #9
  ret ptr %37
}

; Function Attrs: nounwind uwtable
define ptr @assign_digcola_levels(ptr noundef %0, i32 noundef %1, ptr noundef %2, i32 noundef %3) #0 {
  %5 = alloca ptr, align 8
  %6 = alloca i32, align 4
  %7 = alloca ptr, align 8
  %8 = alloca i32, align 4
  %9 = alloca i32, align 4
  %10 = alloca i32, align 4
  %11 = alloca ptr, align 8
  store ptr %0, ptr %5, align 8, !tbaa !80
  store i32 %1, ptr %6, align 4, !tbaa !10
  store ptr %2, ptr %7, align 8, !tbaa !80
  store i32 %3, ptr %8, align 4, !tbaa !10
  call void @llvm.lifetime.start.p0(i64 4, ptr %9) #9
  call void @llvm.lifetime.start.p0(i64 4, ptr %10) #9
  call void @llvm.lifetime.start.p0(i64 8, ptr %11) #9
  %12 = load i32, ptr %8, align 4, !tbaa !10
  %13 = add nsw i32 %12, 1
  %14 = sext i32 %13 to i64
  %15 = call ptr @gv_calloc(i64 noundef %14, i64 noundef 16)
  store ptr %15, ptr %11, align 8, !tbaa !49
  %16 = load ptr, ptr %7, align 8, !tbaa !80
  %17 = getelementptr inbounds i32, ptr %16, i64 0
  %18 = load i32, ptr %17, align 4, !tbaa !10
  %19 = load ptr, ptr %11, align 8, !tbaa !49
  %20 = getelementptr inbounds %struct.DigColaLevel, ptr %19, i64 0
  %21 = getelementptr inbounds nuw %struct.DigColaLevel, ptr %20, i32 0, i32 1
  store i32 %18, ptr %21, align 8, !tbaa !85
  %22 = load ptr, ptr %11, align 8, !tbaa !49
  %23 = getelementptr inbounds %struct.DigColaLevel, ptr %22, i64 0
  %24 = getelementptr inbounds nuw %struct.DigColaLevel, ptr %23, i32 0, i32 1
  %25 = load i32, ptr %24, align 8, !tbaa !85
  %26 = sext i32 %25 to i64
  %27 = call ptr @gv_calloc(i64 noundef %26, i64 noundef 4)
  %28 = load ptr, ptr %11, align 8, !tbaa !49
  %29 = getelementptr inbounds %struct.DigColaLevel, ptr %28, i64 0
  %30 = getelementptr inbounds nuw %struct.DigColaLevel, ptr %29, i32 0, i32 0
  store ptr %27, ptr %30, align 8, !tbaa !87
  store i32 0, ptr %9, align 4, !tbaa !10
  br label %31

31:                                               ; preds = %51, %4
  %32 = load i32, ptr %9, align 4, !tbaa !10
  %33 = load ptr, ptr %11, align 8, !tbaa !49
  %34 = getelementptr inbounds %struct.DigColaLevel, ptr %33, i64 0
  %35 = getelementptr inbounds nuw %struct.DigColaLevel, ptr %34, i32 0, i32 1
  %36 = load i32, ptr %35, align 8, !tbaa !85
  %37 = icmp slt i32 %32, %36
  br i1 %37, label %38, label %54

38:                                               ; preds = %31
  %39 = load ptr, ptr %5, align 8, !tbaa !80
  %40 = load i32, ptr %9, align 4, !tbaa !10
  %41 = sext i32 %40 to i64
  %42 = getelementptr inbounds i32, ptr %39, i64 %41
  %43 = load i32, ptr %42, align 4, !tbaa !10
  %44 = load ptr, ptr %11, align 8, !tbaa !49
  %45 = getelementptr inbounds %struct.DigColaLevel, ptr %44, i64 0
  %46 = getelementptr inbounds nuw %struct.DigColaLevel, ptr %45, i32 0, i32 0
  %47 = load ptr, ptr %46, align 8, !tbaa !87
  %48 = load i32, ptr %9, align 4, !tbaa !10
  %49 = sext i32 %48 to i64
  %50 = getelementptr inbounds i32, ptr %47, i64 %49
  store i32 %43, ptr %50, align 4, !tbaa !10
  br label %51

51:                                               ; preds = %38
  %52 = load i32, ptr %9, align 4, !tbaa !10
  %53 = add nsw i32 %52, 1
  store i32 %53, ptr %9, align 4, !tbaa !10
  br label %31, !llvm.loop !100

54:                                               ; preds = %31
  store i32 1, ptr %9, align 4, !tbaa !10
  br label %55

55:                                               ; preds = %125, %54
  %56 = load i32, ptr %9, align 4, !tbaa !10
  %57 = load i32, ptr %8, align 4, !tbaa !10
  %58 = icmp slt i32 %56, %57
  br i1 %58, label %59, label %128

59:                                               ; preds = %55
  %60 = load ptr, ptr %7, align 8, !tbaa !80
  %61 = load i32, ptr %9, align 4, !tbaa !10
  %62 = sext i32 %61 to i64
  %63 = getelementptr inbounds i32, ptr %60, i64 %62
  %64 = load i32, ptr %63, align 4, !tbaa !10
  %65 = load ptr, ptr %7, align 8, !tbaa !80
  %66 = load i32, ptr %9, align 4, !tbaa !10
  %67 = sub nsw i32 %66, 1
  %68 = sext i32 %67 to i64
  %69 = getelementptr inbounds i32, ptr %65, i64 %68
  %70 = load i32, ptr %69, align 4, !tbaa !10
  %71 = sub nsw i32 %64, %70
  %72 = load ptr, ptr %11, align 8, !tbaa !49
  %73 = load i32, ptr %9, align 4, !tbaa !10
  %74 = sext i32 %73 to i64
  %75 = getelementptr inbounds %struct.DigColaLevel, ptr %72, i64 %74
  %76 = getelementptr inbounds nuw %struct.DigColaLevel, ptr %75, i32 0, i32 1
  store i32 %71, ptr %76, align 8, !tbaa !85
  %77 = load ptr, ptr %11, align 8, !tbaa !49
  %78 = load i32, ptr %9, align 4, !tbaa !10
  %79 = sext i32 %78 to i64
  %80 = getelementptr inbounds %struct.DigColaLevel, ptr %77, i64 %79
  %81 = getelementptr inbounds nuw %struct.DigColaLevel, ptr %80, i32 0, i32 1
  %82 = load i32, ptr %81, align 8, !tbaa !85
  %83 = sext i32 %82 to i64
  %84 = call ptr @gv_calloc(i64 noundef %83, i64 noundef 4)
  %85 = load ptr, ptr %11, align 8, !tbaa !49
  %86 = load i32, ptr %9, align 4, !tbaa !10
  %87 = sext i32 %86 to i64
  %88 = getelementptr inbounds %struct.DigColaLevel, ptr %85, i64 %87
  %89 = getelementptr inbounds nuw %struct.DigColaLevel, ptr %88, i32 0, i32 0
  store ptr %84, ptr %89, align 8, !tbaa !87
  store i32 0, ptr %10, align 4, !tbaa !10
  br label %90

90:                                               ; preds = %121, %59
  %91 = load i32, ptr %10, align 4, !tbaa !10
  %92 = load ptr, ptr %11, align 8, !tbaa !49
  %93 = load i32, ptr %9, align 4, !tbaa !10
  %94 = sext i32 %93 to i64
  %95 = getelementptr inbounds %struct.DigColaLevel, ptr %92, i64 %94
  %96 = getelementptr inbounds nuw %struct.DigColaLevel, ptr %95, i32 0, i32 1
  %97 = load i32, ptr %96, align 8, !tbaa !85
  %98 = icmp slt i32 %91, %97
  br i1 %98, label %99, label %124

99:                                               ; preds = %90
  %100 = load ptr, ptr %5, align 8, !tbaa !80
  %101 = load ptr, ptr %7, align 8, !tbaa !80
  %102 = load i32, ptr %9, align 4, !tbaa !10
  %103 = sub nsw i32 %102, 1
  %104 = sext i32 %103 to i64
  %105 = getelementptr inbounds i32, ptr %101, i64 %104
  %106 = load i32, ptr %105, align 4, !tbaa !10
  %107 = load i32, ptr %10, align 4, !tbaa !10
  %108 = add nsw i32 %106, %107
  %109 = sext i32 %108 to i64
  %110 = getelementptr inbounds i32, ptr %100, i64 %109
  %111 = load i32, ptr %110, align 4, !tbaa !10
  %112 = load ptr, ptr %11, align 8, !tbaa !49
  %113 = load i32, ptr %9, align 4, !tbaa !10
  %114 = sext i32 %113 to i64
  %115 = getelementptr inbounds %struct.DigColaLevel, ptr %112, i64 %114
  %116 = getelementptr inbounds nuw %struct.DigColaLevel, ptr %115, i32 0, i32 0
  %117 = load ptr, ptr %116, align 8, !tbaa !87
  %118 = load i32, ptr %10, align 4, !tbaa !10
  %119 = sext i32 %118 to i64
  %120 = getelementptr inbounds i32, ptr %117, i64 %119
  store i32 %111, ptr %120, align 4, !tbaa !10
  br label %121

121:                                              ; preds = %99
  %122 = load i32, ptr %10, align 4, !tbaa !10
  %123 = add nsw i32 %122, 1
  store i32 %123, ptr %10, align 4, !tbaa !10
  br label %90, !llvm.loop !101

124:                                              ; preds = %90
  br label %125

125:                                              ; preds = %124
  %126 = load i32, ptr %9, align 4, !tbaa !10
  %127 = add nsw i32 %126, 1
  store i32 %127, ptr %9, align 4, !tbaa !10
  br label %55, !llvm.loop !102

128:                                              ; preds = %55
  %129 = load i32, ptr %8, align 4, !tbaa !10
  %130 = icmp sgt i32 %129, 0
  br i1 %130, label %131, label %193

131:                                              ; preds = %128
  %132 = load i32, ptr %6, align 4, !tbaa !10
  %133 = load ptr, ptr %7, align 8, !tbaa !80
  %134 = load i32, ptr %8, align 4, !tbaa !10
  %135 = sub nsw i32 %134, 1
  %136 = sext i32 %135 to i64
  %137 = getelementptr inbounds i32, ptr %133, i64 %136
  %138 = load i32, ptr %137, align 4, !tbaa !10
  %139 = sub nsw i32 %132, %138
  %140 = load ptr, ptr %11, align 8, !tbaa !49
  %141 = load i32, ptr %8, align 4, !tbaa !10
  %142 = sext i32 %141 to i64
  %143 = getelementptr inbounds %struct.DigColaLevel, ptr %140, i64 %142
  %144 = getelementptr inbounds nuw %struct.DigColaLevel, ptr %143, i32 0, i32 1
  store i32 %139, ptr %144, align 8, !tbaa !85
  %145 = load ptr, ptr %11, align 8, !tbaa !49
  %146 = load i32, ptr %8, align 4, !tbaa !10
  %147 = sext i32 %146 to i64
  %148 = getelementptr inbounds %struct.DigColaLevel, ptr %145, i64 %147
  %149 = getelementptr inbounds nuw %struct.DigColaLevel, ptr %148, i32 0, i32 1
  %150 = load i32, ptr %149, align 8, !tbaa !85
  %151 = sext i32 %150 to i64
  %152 = call ptr @gv_calloc(i64 noundef %151, i64 noundef 4)
  %153 = load ptr, ptr %11, align 8, !tbaa !49
  %154 = load i32, ptr %8, align 4, !tbaa !10
  %155 = sext i32 %154 to i64
  %156 = getelementptr inbounds %struct.DigColaLevel, ptr %153, i64 %155
  %157 = getelementptr inbounds nuw %struct.DigColaLevel, ptr %156, i32 0, i32 0
  store ptr %152, ptr %157, align 8, !tbaa !87
  store i32 0, ptr %9, align 4, !tbaa !10
  br label %158

158:                                              ; preds = %189, %131
  %159 = load i32, ptr %9, align 4, !tbaa !10
  %160 = load ptr, ptr %11, align 8, !tbaa !49
  %161 = load i32, ptr %8, align 4, !tbaa !10
  %162 = sext i32 %161 to i64
  %163 = getelementptr inbounds %struct.DigColaLevel, ptr %160, i64 %162
  %164 = getelementptr inbounds nuw %struct.DigColaLevel, ptr %163, i32 0, i32 1
  %165 = load i32, ptr %164, align 8, !tbaa !85
  %166 = icmp slt i32 %159, %165
  br i1 %166, label %167, label %192

167:                                              ; preds = %158
  %168 = load ptr, ptr %5, align 8, !tbaa !80
  %169 = load ptr, ptr %7, align 8, !tbaa !80
  %170 = load i32, ptr %8, align 4, !tbaa !10
  %171 = sub nsw i32 %170, 1
  %172 = sext i32 %171 to i64
  %173 = getelementptr inbounds i32, ptr %169, i64 %172
  %174 = load i32, ptr %173, align 4, !tbaa !10
  %175 = load i32, ptr %9, align 4, !tbaa !10
  %176 = add nsw i32 %174, %175
  %177 = sext i32 %176 to i64
  %178 = getelementptr inbounds i32, ptr %168, i64 %177
  %179 = load i32, ptr %178, align 4, !tbaa !10
  %180 = load ptr, ptr %11, align 8, !tbaa !49
  %181 = load i32, ptr %8, align 4, !tbaa !10
  %182 = sext i32 %181 to i64
  %183 = getelementptr inbounds %struct.DigColaLevel, ptr %180, i64 %182
  %184 = getelementptr inbounds nuw %struct.DigColaLevel, ptr %183, i32 0, i32 0
  %185 = load ptr, ptr %184, align 8, !tbaa !87
  %186 = load i32, ptr %9, align 4, !tbaa !10
  %187 = sext i32 %186 to i64
  %188 = getelementptr inbounds i32, ptr %185, i64 %187
  store i32 %179, ptr %188, align 4, !tbaa !10
  br label %189

189:                                              ; preds = %167
  %190 = load i32, ptr %9, align 4, !tbaa !10
  %191 = add nsw i32 %190, 1
  store i32 %191, ptr %9, align 4, !tbaa !10
  br label %158, !llvm.loop !103

192:                                              ; preds = %158
  br label %193

193:                                              ; preds = %192, %128
  %194 = load ptr, ptr %11, align 8, !tbaa !49
  call void @llvm.lifetime.end.p0(i64 8, ptr %11) #9
  call void @llvm.lifetime.end.p0(i64 4, ptr %10) #9
  call void @llvm.lifetime.end.p0(i64 4, ptr %9) #9
  ret ptr %194
}