; Function Attrs: nofree nounwind uwtable
define noalias noundef ptr @assign_digcola_levels(ptr noundef readonly captures(none) %0, i32 noundef %1, ptr noundef readonly captures(none) %2, i32 noundef %3) local_unnamed_addr #5 {
  %5 = add nsw i32 %3, 1
  %6 = sext i32 %5 to i64
  %.not.i = icmp eq i32 %5, 0
  br i1 %.not.i, label %.thread.i, label %8

.thread.i:                                        ; preds = %4
  %7 = tail call noalias ptr @calloc(i64 noundef 0, i64 noundef 16) #15
  br label %gv_calloc.exit

8:                                                ; preds = %4
  %mul.ov.i = icmp slt i32 %3, -1
  br i1 %mul.ov.i, label %9, label %12

9:                                                ; preds = %8
  %10 = load ptr, ptr @stderr, align 8, !tbaa !42
  %11 = tail call i32 (ptr, ptr, ...) @fprintf(ptr noundef %10, ptr noundef nonnull @.str.4, i64 noundef range(i64 -2147483648, 2147483648) %6, i64 noundef 16) #16
  tail call fastcc void @graphviz_exit() #17
  unreachable

12:                                               ; preds = %8
  %13 = tail call noalias ptr @calloc(i64 noundef range(i64 -2147483648, 2147483648) %6, i64 noundef 16) #15
  %14 = icmp eq ptr %13, null
  br i1 %14, label %15, label %gv_calloc.exit

15:                                               ; preds = %12
  %16 = load ptr, ptr @stderr, align 8, !tbaa !42
  %17 = shl nuw nsw i64 %6, 4
  %18 = tail call i32 (ptr, ptr, ...) @fprintf(ptr noundef %16, ptr noundef nonnull @.str.5, i64 noundef %17) #16
  tail call fastcc void @graphviz_exit() #17
  unreachable

gv_calloc.exit:                                   ; preds = %.thread.i, %12
  %19 = phi ptr [ %7, %.thread.i ], [ %13, %12 ]
  %20 = load i32, ptr %2, align 4, !tbaa !64
  %21 = getelementptr inbounds nuw i8, ptr %19, i64 8
  store i32 %20, ptr %21, align 8, !tbaa !71
  %22 = sext i32 %20 to i64
  %.not.i59 = icmp eq i32 %20, 0
  br i1 %.not.i59, label %gv_calloc.exit63, label %23

23:                                               ; preds = %gv_calloc.exit
  %mul.ov.i61 = icmp slt i32 %20, 0
  br i1 %mul.ov.i61, label %24, label %27

24:                                               ; preds = %23
  %25 = load ptr, ptr @stderr, align 8, !tbaa !42
  %26 = tail call i32 (ptr, ptr, ...) @fprintf(ptr noundef %25, ptr noundef nonnull @.str.4, i64 noundef range(i64 -2147483648, 2147483648) %22, i64 noundef 4) #16
  tail call fastcc void @graphviz_exit() #17
  unreachable

27:                                               ; preds = %23
  %28 = tail call noalias ptr @calloc(i64 noundef range(i64 -2147483648, 2147483648) %22, i64 noundef 4) #15
  %29 = icmp eq ptr %28, null
  br i1 %29, label %30, label %.lr.ph.preheader

30:                                               ; preds = %27
  %31 = load ptr, ptr @stderr, align 8, !tbaa !42
  %32 = shl nuw nsw i64 %22, 2
  %33 = tail call i32 (ptr, ptr, ...) @fprintf(ptr noundef %31, ptr noundef nonnull @.str.5, i64 noundef %32) #16
  tail call fastcc void @graphviz_exit() #17
  unreachable

gv_calloc.exit63:                                 ; preds = %gv_calloc.exit
  %34 = tail call noalias ptr @calloc(i64 noundef 0, i64 noundef 4) #15
  store ptr %34, ptr %19, align 8, !tbaa !77
  br label %.preheader

.lr.ph.preheader:                                 ; preds = %27
  store ptr %28, ptr %19, align 8, !tbaa !77
  %35 = zext nneg i32 %20 to i64
  %36 = shl nuw nsw i64 %35, 2
  tail call void @llvm.memcpy.p0.p0.i64(ptr nonnull align 4 %28, ptr align 4 %0, i64 %36, i1 false), !tbaa !64
  br label %.preheader

.preheader:                                       ; preds = %gv_calloc.exit63, %.lr.ph.preheader
  %37 = icmp sgt i32 %3, 1
  br i1 %37, label %.lr.ph79.preheader, label %._crit_edge80

.lr.ph79.preheader:                               ; preds = %.preheader
  %wide.trip.count = zext nneg i32 %3 to i64
  br label %.lr.ph79

.lr.ph79:                                         ; preds = %.lr.ph79.preheader, %._crit_edge
  %indvars.iv = phi i64 [ 1, %.lr.ph79.preheader ], [ %indvars.iv.next, %._crit_edge ]
  %38 = getelementptr inbounds nuw i32, ptr %2, i64 %indvars.iv
  %39 = load i32, ptr %38, align 4, !tbaa !64
  %40 = getelementptr i8, ptr %38, i64 -4
  %41 = load i32, ptr %40, align 4, !tbaa !64
  %42 = sub i32 %39, %41
  %43 = getelementptr inbounds nuw %struct.DigColaLevel, ptr %19, i64 %indvars.iv
  %44 = getelementptr inbounds nuw i8, ptr %43, i64 8
  store i32 %42, ptr %44, align 8, !tbaa !71
  %45 = sext i32 %42 to i64
  %.not.i64 = icmp eq i32 %39, %41
  br i1 %.not.i64, label %gv_calloc.exit68, label %46

46:                                               ; preds = %.lr.ph79
  %mul.ov.i66 = icmp slt i32 %42, 0
  br i1 %mul.ov.i66, label %47, label %50

47:                                               ; preds = %46
  %48 = load ptr, ptr @stderr, align 8, !tbaa !42
  %49 = tail call i32 (ptr, ptr, ...) @fprintf(ptr noundef %48, ptr noundef nonnull @.str.4, i64 noundef range(i64 -2147483648, 2147483648) %45, i64 noundef 4) #16
  tail call fastcc void @graphviz_exit() #17
  unreachable

50:                                               ; preds = %46
  %51 = tail call noalias ptr @calloc(i64 noundef range(i64 -2147483648, 2147483648) %45, i64 noundef 4) #15
  %52 = icmp eq ptr %51, null
  br i1 %52, label %53, label %.lr.ph77

53:                                               ; preds = %50
  %54 = load ptr, ptr @stderr, align 8, !tbaa !42
  %55 = shl nuw nsw i64 %45, 2
  %56 = tail call i32 (ptr, ptr, ...) @fprintf(ptr noundef %54, ptr noundef nonnull @.str.5, i64 noundef %55) #16
  tail call fastcc void @graphviz_exit() #17
  unreachable

gv_calloc.exit68:                                 ; preds = %.lr.ph79
  %57 = tail call noalias ptr @calloc(i64 noundef 0, i64 noundef 4) #15
  store ptr %57, ptr %43, align 8, !tbaa !77
  br label %._crit_edge

.lr.ph77:                                         ; preds = %50
  store ptr %51, ptr %43, align 8, !tbaa !77
  %58 = sext i32 %41 to i64
  %59 = shl nsw i64 %58, 2
  %scevgep = getelementptr i8, ptr %0, i64 %59
  %60 = zext nneg i32 %42 to i64
  %61 = shl nuw nsw i64 %60, 2
  tail call void @llvm.memcpy.p0.p0.i64(ptr nonnull align 4 %51, ptr align 4 %scevgep, i64 %61, i1 false), !tbaa !64
  br label %._crit_edge

._crit_edge:                                      ; preds = %gv_calloc.exit68, %.lr.ph77
  %indvars.iv.next = add nuw nsw i64 %indvars.iv, 1
  %exitcond.not = icmp eq i64 %indvars.iv.next, %wide.trip.count
  br i1 %exitcond.not, label %._crit_edge80, label %.lr.ph79, !llvm.loop !88

._crit_edge80:                                    ; preds = %._crit_edge, %.preheader
  %62 = icmp sgt i32 %3, 0
  br i1 %62, label %63, label %.loopexit

63:                                               ; preds = %._crit_edge80
  %64 = zext nneg i32 %3 to i64
  %65 = getelementptr i32, ptr %2, i64 %64
  %66 = getelementptr i8, ptr %65, i64 -4
  %67 = load i32, ptr %66, align 4, !tbaa !64
  %68 = sub i32 %1, %67
  %69 = getelementptr inbounds nuw %struct.DigColaLevel, ptr %19, i64 %64
  %70 = getelementptr inbounds nuw i8, ptr %69, i64 8
  store i32 %68, ptr %70, align 8, !tbaa !71
  %71 = sext i32 %68 to i64
  %.not.i69 = icmp eq i32 %1, %67
  br i1 %.not.i69, label %gv_calloc.exit73, label %72

72:                                               ; preds = %63
  %mul.ov.i71 = icmp slt i32 %68, 0
  br i1 %mul.ov.i71, label %73, label %76

73:                                               ; preds = %72
  %74 = load ptr, ptr @stderr, align 8, !tbaa !42
  %75 = tail call i32 (ptr, ptr, ...) @fprintf(ptr noundef %74, ptr noundef nonnull @.str.4, i64 noundef range(i64 -2147483648, 2147483648) %71, i64 noundef 4) #16
  tail call fastcc void @graphviz_exit() #17
  unreachable

76:                                               ; preds = %72
  %77 = tail call noalias ptr @calloc(i64 noundef range(i64 -2147483648, 2147483648) %71, i64 noundef 4) #15
  %78 = icmp eq ptr %77, null
  br i1 %78, label %79, label %.lr.ph82

79:                                               ; preds = %76
  %80 = load ptr, ptr @stderr, align 8, !tbaa !42
  %81 = shl nuw nsw i64 %71, 2
  %82 = tail call i32 (ptr, ptr, ...) @fprintf(ptr noundef %80, ptr noundef nonnull @.str.5, i64 noundef %81) #16
  tail call fastcc void @graphviz_exit() #17
  unreachable

gv_calloc.exit73:                                 ; preds = %63
  %83 = tail call noalias ptr @calloc(i64 noundef 0, i64 noundef 4) #15
  store ptr %83, ptr %69, align 8, !tbaa !77
  br label %.loopexit

.lr.ph82:                                         ; preds = %76
  store ptr %77, ptr %69, align 8, !tbaa !77
  %84 = sext i32 %67 to i64
  %85 = shl nsw i64 %84, 2
  %scevgep88 = getelementptr i8, ptr %0, i64 %85
  %86 = zext nneg i32 %68 to i64
  %87 = shl nuw nsw i64 %86, 2
  tail call void @llvm.memcpy.p0.p0.i64(ptr nonnull align 4 %77, ptr align 4 %scevgep88, i64 %87, i1 false), !tbaa !64
  br label %.loopexit

.loopexit:                                        ; preds = %gv_calloc.exit73, %.lr.ph82, %._crit_edge80
  ret ptr %19
}